target datalayout = "e-m:e-p270:32:32-p271:32:32-p272:64:64-i64:64-i128:128-f80:128-n8:16:32:64-S128"
target triple = "x86_64-pc-linux-gnu"

%struct._object = type { %union.anon, ptr }
%union.anon = type { i64 }
%struct._longobject = type { %struct._object, %struct._PyLongValue }
%struct._PyLongValue = type { i64, [1 x i32] }
%struct.propertyobject = type { %struct._object, ptr, ptr, ptr, ptr, ptr, i32 }

@_Py_TrueStruct = external global %struct._longobject, align 8
@_Py_FalseStruct = external global %struct._longobject, align 8

; Function Attrs: nounwind uwtable
define internal ptr @property_get___isabstractmethod__(ptr noundef %0, ptr noundef %1) #0 {
  %3 = alloca ptr, align 8
  %4 = alloca ptr, align 8
  %5 = alloca ptr, align 8
  %6 = alloca ptr, align 8
  %7 = alloca i32, align 4
  %8 = alloca i32, align 4
  store ptr %0, ptr %4, align 8, !tbaa !4
  store ptr %1, ptr %5, align 8, !tbaa !9
  call void @llvm.lifetime.start.p0(i64 8, ptr %6) #6
  %9 = load ptr, ptr %4, align 8, !tbaa !4
  store ptr %9, ptr %6, align 8, !tbaa !9
  call void @llvm.lifetime.start.p0(i64 4, ptr %7) #6
  %10 = load ptr, ptr %6, align 8, !tbaa !9
  %11 = getelementptr inbounds nuw %struct.propertyobject, ptr %10, i32 0, i32 1
  %12 = load ptr, ptr %11, align 8, !tbaa !152
  %13 = call i32 @_PyObject_IsAbstract(ptr noundef %12)
  store i32 %13, ptr %7, align 4, !tbaa !16
  %14 = load i32, ptr %7, align 4, !tbaa !16
  %15 = icmp eq i32 %14, -1
  br i1 %15, label %16, label %17

16:                                               ; preds = %2
  store ptr null, ptr %3, align 8
  store i32 1, ptr %8, align 4
  br label %49

17:                                               ; preds = %2
  %18 = load i32, ptr %7, align 4, !tbaa !16
  %19 = icmp ne i32 %18, 0
  br i1 %19, label %20, label %21

20:                                               ; preds = %17
  store ptr @_Py_TrueStruct, ptr %3, align 8
  store i32 1, ptr %8, align 4
  br label %49

21:                                               ; preds = %17
  br label %22

22:                                               ; preds = %21
  %23 = load ptr, ptr %6, align 8, !tbaa !9
  %24 = getelementptr inbounds nuw %struct.propertyobject, ptr %23, i32 0, i32 2
  %25 = load ptr, ptr %24, align 8, !tbaa !154
  %26 = call i32 @_PyObject_IsAbstract(ptr noundef %25)
  store i32 %26, ptr %7, align 4, !tbaa !16
  %27 = load i32, ptr %7, align 4, !tbaa !16
  %28 = icmp eq i32 %27, -1
  br i1 %28, label %29, label %30

29:                                               ; preds = %22
  store ptr null, ptr %3, align 8
  store i32 1, ptr %8, align 4
  br label %49

30:                                               ; preds = %22
  %31 = load i32, ptr %7, align 4, !tbaa !16
  %32 = icmp ne i32 %31, 0
  br i1 %32, label %33, label %34

33:                                               ; preds = %30
  store ptr @_Py_TrueStruct, ptr %3, align 8
  store i32 1, ptr %8, align 4
  br label %49

34:                                               ; preds = %30
  br label %35

35:                                               ; preds = %34
  %36 = load ptr, ptr %6, align 8, !tbaa !9
  %37 = getelementptr inbounds nuw %struct.propertyobject, ptr %36, i32 0, i32 3
  %38 = load ptr, ptr %37, align 8, !tbaa !155
  %39 = call i32 @_PyObject_IsAbstract(ptr noundef %38)
  store i32 %39, ptr %7, align 4, !tbaa !16
  %40 = load i32, ptr %7, align 4, !tbaa !16
  %41 = icmp eq i32 %40, -1
  br i1 %41, label %42, label %43

42:                                               ; preds = %35
  store ptr null, ptr %3, align 8
  store i32 1, ptr %8, align 4
  br label %49

43:                                               ; preds = %35
  %44 = load i32, ptr %7, align 4, !tbaa !16
  %45 = icmp ne i32 %44, 0
  br i1 %45, label %46, label %47

46:                                               ; preds = %43
  store ptr @_Py_TrueStruct, ptr %3, align 8
  store i32 1, ptr %8, align 4
  br label %49

47:                                               ; preds = %43
  br label %48

48:                                               ; preds = %47
  store ptr @_Py_FalseStruct, ptr %3, align 8
  store i32 1, ptr %8, align 4
  br label %49

49:                                               ; preds = %48, %46, %42, %33, %29, %20, %16
  call void @llvm.lifetime.end.p0(i64 4, ptr %7) #6
  call void @llvm.lifetime.end.p0(i64 8, ptr %6) #6
  %50 = load ptr, ptr %3, align 8
  ret ptr %50
}