; Function Attrs: nounwind uwtable
define internal ptr @property_get___isabstractmethod__(ptr noundef readonly captures(none) %0, ptr readnone captures(none) %1) #0 {
  %3 = getelementptr inbounds nuw i8, ptr %0, i64 16
  %4 = load ptr, ptr %3, align 8, !tbaa !152
  %5 = tail call i32 @_PyObject_IsAbstract(ptr noundef %4) #9
  switch i32 %5, label %6 [
    i32 -1, label %16
    i32 0, label %7
  ]

6:                                                ; preds = %2
  br label %16

7:                                                ; preds = %2
  %8 = getelementptr inbounds nuw i8, ptr %0, i64 24
  %9 = load ptr, ptr %8, align 8, !tbaa !154
  %10 = tail call i32 @_PyObject_IsAbstract(ptr noundef %9) #9
  switch i32 %10, label %11 [
    i32 -1, label %16
    i32 0, label %12
  ]

11:                                               ; preds = %7
  br label %16

12:                                               ; preds = %7
  %13 = getelementptr inbounds nuw i8, ptr %0, i64 32
  %14 = load ptr, ptr %13, align 8, !tbaa !155
  %15 = tail call i32 @_PyObject_IsAbstract(ptr noundef %14) #9
  %switch.selectcmp = icmp eq i32 %15, 0
  %switch.select = select i1 %switch.selectcmp, ptr @_Py_FalseStruct, ptr @_Py_TrueStruct
  %switch.selectcmp15 = icmp eq i32 %15, -1
  %switch.select16 = select i1 %switch.selectcmp15, ptr null, ptr %switch.select
  br label %16

16:                                               ; preds = %12, %7, %2, %11, %6
  %.0 = phi ptr [ @_Py_TrueStruct, %6 ], [ @_Py_TrueStruct, %11 ], [ null, %2 ], [ null, %7 ], [ %switch.select16, %12 ]
  ret ptr %.0
}